target datalayout = "e-m:e-p270:32:32-p271:32:32-p272:64:64-i64:64-i128:128-f80:128-n8:16:32:64-S128"
target triple = "x86_64-unknown-linux-gnu"

%class.b3PrefixScanCL = type { ptr, ptr, ptr, ptr, ptr, ptr }

@_ZTV14b3PrefixScanCL = dso_local unnamed_addr constant { [4 x ptr] } { [4 x ptr] [ptr null, ptr @_ZTI14b3PrefixScanCL, ptr @_ZN14b3PrefixScanCLD1Ev, ptr @_ZN14b3PrefixScanCLD0Ev] }, align 8
@__clewReleaseKernel = external global ptr, align 8

; Function Attrs: mustprogress nounwind uwtable
define dso_local void @_ZN14b3PrefixScanCLD2Ev(ptr noundef nonnull align 8 dereferenceable(48) %this) unnamed_addr #3 align 2 personality ptr @__gxx_personality_v0 {
entry:
  %this.addr = alloca ptr, align 8
  store ptr %this, ptr %this.addr, align 8
  %this1 = load ptr, ptr %this.addr, align 8
  store ptr getelementptr inbounds ({ [4 x ptr] }, ptr @_ZTV14b3PrefixScanCL, i32 0, i32 0, i32 2), ptr %this1, align 8
  %m_workBuffer = getelementptr inbounds %class.b3PrefixScanCL, ptr %this1, i32 0, i32 5
  %0 = load ptr, ptr %m_workBuffer, align 8
  %isnull = icmp eq ptr %0, null
  br i1 %isnull, label %delete.end, label %delete.notnull

delete.notnull:                                   ; preds = %entry
  %vtable = load ptr, ptr %0, align 8
  %vfn = getelementptr inbounds ptr, ptr %vtable, i64 1
  %1 = load ptr, ptr %vfn, align 8
  call void %1(ptr noundef nonnull align 8 dereferenceable(50) %0) #10
  br label %delete.end

delete.end:                                       ; preds = %delete.notnull, %entry
  %2 = load ptr, ptr @__clewReleaseKernel, align 8
  %m_localScanKernel = getelementptr inbounds %class.b3PrefixScanCL, ptr %this1, i32 0, i32 2
  %3 = load ptr, ptr %m_localScanKernel, align 8
  %call = invoke i32 %2(ptr noundef %3)
          to label %invoke.cont unwind label %terminate.lpad

invoke.cont:                                      ; preds = %delete.end
  %4 = load ptr, ptr @__clewReleaseKernel, align 8
  %m_blockSumKernel = getelementptr inbounds %class.b3PrefixScanCL, ptr %this1, i32 0, i32 3
  %5 = load ptr, ptr %m_blockSumKernel, align 8
  %call3 = invoke i32 %4(ptr noundef %5)
          to label %invoke.cont2 unwind label %terminate.lpad

invoke.cont2:                                     ; preds = %invoke.cont
  %6 = load ptr, ptr @__clewReleaseKernel, align 8
  %m_propagationKernel = getelementptr inbounds %class.b3PrefixScanCL, ptr %this1, i32 0, i32 4
  %7 = load ptr, ptr %m_propagationKernel, align 8
  %call5 = invoke i32 %6(ptr noundef %7)
          to label %invoke.cont4 unwind label %terminate.lpad

invoke.cont4:                                     ; preds = %invoke.cont2
  ret void

terminate.lpad:                                   ; preds = %invoke.cont2, %invoke.cont, %delete.end
  %8 = landingpad { ptr, i32 }
          catch ptr null
  %9 = extractvalue { ptr, i32 } %8, 0
  call void @__clang_call_terminate(ptr %9) #11
  unreachable
}