; Function Attrs: mustprogress nounwind uwtable
define dso_local void @_ZN14b3PrefixScanCLD2Ev(ptr nocapture noundef nonnull align 8 dereferenceable(48) %this) unnamed_addr #3 align 2 personality ptr @__gxx_personality_v0 {
entry:
  store ptr getelementptr inbounds ({ [4 x ptr] }, ptr @_ZTV14b3PrefixScanCL, i64 0, i32 0, i64 2), ptr %this, align 8
  %m_workBuffer = getelementptr inbounds i8, ptr %this, i64 40
  %0 = load ptr, ptr %m_workBuffer, align 8
  %isnull = icmp eq ptr %0, null
  br i1 %isnull, label %delete.end, label %delete.notnull

delete.notnull:                                   ; preds = %entry
  %vtable = load ptr, ptr %0, align 8
  %vfn = getelementptr inbounds i8, ptr %vtable, i64 8
  %1 = load ptr, ptr %vfn, align 8
  tail call void %1(ptr noundef nonnull align 8 dereferenceable(50) %0) #15
  br label %delete.end

delete.end:                                       ; preds = %delete.notnull, %entry
  %2 = load ptr, ptr @__clewReleaseKernel, align 8
  %m_localScanKernel = getelementptr inbounds i8, ptr %this, i64 16
  %3 = load ptr, ptr %m_localScanKernel, align 8
  %call = invoke i32 %2(ptr noundef %3)
          to label %invoke.cont unwind label %terminate.lpad

invoke.cont:                                      ; preds = %delete.end
  %4 = load ptr, ptr @__clewReleaseKernel, align 8
  %m_blockSumKernel = getelementptr inbounds i8, ptr %this, i64 24
  %5 = load ptr, ptr %m_blockSumKernel, align 8
  %call3 = invoke i32 %4(ptr noundef %5)
          to label %invoke.cont2 unwind label %terminate.lpad

invoke.cont2:                                     ; preds = %invoke.cont
  %6 = load ptr, ptr @__clewReleaseKernel, align 8
  %m_propagationKernel = getelementptr inbounds i8, ptr %this, i64 32
  %7 = load ptr, ptr %m_propagationKernel, align 8
  %call5 = invoke i32 %6(ptr noundef %7)
          to label %invoke.cont4 unwind label %terminate.lpad

invoke.cont4:                                     ; preds = %invoke.cont2
  ret void

terminate.lpad:                                   ; preds = %invoke.cont2, %invoke.cont, %delete.end
  %8 = landingpad { ptr, i32 }
          catch ptr null
  %9 = extractvalue { ptr, i32 } %8, 0
  tail call void @__clang_call_terminate(ptr %9) #16
  unreachable
}